target datalayout = "e-m:e-p270:32:32-p271:32:32-p272:64:64-i64:64-i128:128-f80:128-n8:16:32:64-S128"
target triple = "x86_64-pc-linux-gnu"

%struct.FunctionCallInfoBaseData = type { ptr, ptr, ptr, i32, i8, i16, [0 x %struct.NullableDatum] }
%struct.NullableDatum = type { i64, i8 }
%struct.PgBackendStatus = type { i32, i32, i32, i64, i64, i64, i64, i32, i32, %struct.SockAddr, ptr, i8, ptr, i8, ptr, i32, ptr, ptr, i32, i32, [20 x i64], i64 }
%struct.SockAddr = type { %struct.sockaddr_storage, i32 }
%struct.sockaddr_storage = type { i16, [118 x i8], i64 }

@.str.14 = private unnamed_addr constant [25 x i8] c"<insufficient privilege>\00", align 1
@.str.17 = private unnamed_addr constant [36 x i8] c"<backend information not available>\00", align 1
@.str.18 = private unnamed_addr constant [29 x i8] c"<command string not enabled>\00", align 1

; Function Attrs: inlinehint nounwind uwtable
define internal i64 @PointerGetDatum(ptr noundef %0) #2 {
  %2 = alloca ptr, align 8
  store ptr %0, ptr %2, align 8
  %3 = load ptr, ptr %2, align 8
  %4 = ptrtoint ptr %3 to i64
  ret i64 %4
}

; Function Attrs: inlinehint nounwind uwtable
define internal i32 @DatumGetInt32(i64 noundef %0) #2 {
  %2 = alloca i64, align 8
  store i64 %0, ptr %2, align 8
  %3 = load i64, ptr %2, align 8
  %4 = trunc i64 %3 to i32
  ret i32 %4
}

; Function Attrs: nounwind uwtable
define dso_local i64 @pg_stat_get_backend_activity(ptr noundef %0) #0 {
  %2 = alloca ptr, align 8
  %3 = alloca i32, align 4
  %4 = alloca ptr, align 8
  %5 = alloca ptr, align 8
  %6 = alloca ptr, align 8
  %7 = alloca ptr, align 8
  store ptr %0, ptr %2, align 8
  call void @llvm.lifetime.start.p0(i64 4, ptr %3) #10
  %8 = load ptr, ptr %2, align 8
  %9 = getelementptr inbounds nuw %struct.FunctionCallInfoBaseData, ptr %8, i32 0, i32 6
  %10 = getelementptr inbounds [0 x %struct.NullableDatum], ptr %9, i64 0, i64 0
  %11 = getelementptr inbounds nuw %struct.NullableDatum, ptr %10, i32 0, i32 0
  %12 = load i64, ptr %11, align 8
  %13 = call i32 @DatumGetInt32(i64 noundef %12)
  store i32 %13, ptr %3, align 4
  call void @llvm.lifetime.start.p0(i64 8, ptr %4) #10
  call void @llvm.lifetime.start.p0(i64 8, ptr %5) #10
  call void @llvm.lifetime.start.p0(i64 8, ptr %6) #10
  call void @llvm.lifetime.start.p0(i64 8, ptr %7) #10
  %14 = load i32, ptr %3, align 4
  %15 = call ptr @pgstat_get_beentry_by_proc_number(i32 noundef %14)
  store ptr %15, ptr %4, align 8
  %16 = icmp eq ptr %15, null
  br i1 %16, label %17, label %18

17:                                               ; preds = %1
  store ptr @.str.17, ptr %5, align 8
  br label %42

18:                                               ; preds = %1
  %19 = call i32 @GetUserId()
  %20 = call zeroext i1 @has_privs_of_role(i32 noundef %19, i32 noundef 3375)
  br i1 %20, label %28, label %21

21:                                               ; preds = %18
  %22 = call i32 @GetUserId()
  %23 = load ptr, ptr %4, align 8
  %24 = getelementptr inbounds nuw %struct.PgBackendStatus, ptr %23, i32 0, i32 8
  %25 = load i32, ptr %24, align 4
  %26 = call zeroext i1 @has_privs_of_role(i32 noundef %22, i32 noundef %25)
  br i1 %26, label %28, label %27

27:                                               ; preds = %21
  store ptr @.str.14, ptr %5, align 8
  br label %41

28:                                               ; preds = %21, %18
  %29 = load ptr, ptr %4, align 8
  %30 = getelementptr inbounds nuw %struct.PgBackendStatus, ptr %29, i32 0, i32 17
  %31 = load ptr, ptr %30, align 8
  %32 = load i8, ptr %31, align 1
  %33 = sext i8 %32 to i32
  %34 = icmp eq i32 %33, 0
  br i1 %34, label %35, label %36

35:                                               ; preds = %28
  store ptr @.str.18, ptr %5, align 8
  br label %40

36:                                               ; preds = %28
  %37 = load ptr, ptr %4, align 8
  %38 = getelementptr inbounds nuw %struct.PgBackendStatus, ptr %37, i32 0, i32 17
  %39 = load ptr, ptr %38, align 8
  store ptr %39, ptr %5, align 8
  br label %40

40:                                               ; preds = %36, %35
  br label %41

41:                                               ; preds = %40, %27
  br label %42

42:                                               ; preds = %41, %17
  %43 = load ptr, ptr %5, align 8
  %44 = call ptr @pgstat_clip_activity(ptr noundef %43)
  store ptr %44, ptr %6, align 8
  %45 = load ptr, ptr %5, align 8
  %46 = call ptr @cstring_to_text(ptr noundef %45)
  store ptr %46, ptr %7, align 8
  %47 = load ptr, ptr %6, align 8
  call void @pfree(ptr noundef %47)
  %48 = load ptr, ptr %7, align 8
  %49 = call i64 @PointerGetDatum(ptr noundef %48)
  call void @llvm.lifetime.end.p0(i64 8, ptr %7) #10
  call void @llvm.lifetime.end.p0(i64 8, ptr %6) #10
  call void @llvm.lifetime.end.p0(i64 8, ptr %5) #10
  call void @llvm.lifetime.end.p0(i64 8, ptr %4) #10
  call void @llvm.lifetime.end.p0(i64 4, ptr %3) #10
  ret i64 %49
}