; Function Attrs: nounwind uwtable
define dso_local i64 @pg_stat_get_backend_activity(ptr noundef readonly captures(none) %0) local_unnamed_addr #0 {
  %2 = getelementptr inbounds nuw i8, ptr %0, i64 32
  %3 = load i64, ptr %2, align 8
  %4 = trunc i64 %3 to i32
  %5 = tail call ptr @pgstat_get_beentry_by_proc_number(i32 noundef %4) #9
  %6 = icmp eq ptr %5, null
  br i1 %6, label %20, label %7

7:                                                ; preds = %1
  %8 = tail call i32 @GetUserId() #9
  %9 = tail call zeroext i1 @has_privs_of_role(i32 noundef %8, i32 noundef 3375) #9
  br i1 %9, label %15, label %10

10:                                               ; preds = %7
  %11 = tail call i32 @GetUserId() #9
  %12 = getelementptr inbounds nuw i8, ptr %5, i64 52
  %13 = load i32, ptr %12, align 4
  %14 = tail call zeroext i1 @has_privs_of_role(i32 noundef %11, i32 noundef %13) #9
  br i1 %14, label %15, label %20

15:                                               ; preds = %10, %7
  %16 = getelementptr inbounds nuw i8, ptr %5, i64 248
  %17 = load ptr, ptr %16, align 8
  %18 = load i8, ptr %17, align 1
  %19 = icmp eq i8 %18, 0
  %.str.18. = select i1 %19, ptr @.str.18, ptr %17
  br label %20

20:                                               ; preds = %15, %10, %1
  %.0 = phi ptr [ @.str.17, %1 ], [ @.str.14, %10 ], [ %.str.18., %15 ]
  %21 = tail call ptr @pgstat_clip_activity(ptr noundef nonnull %.0) #9
  %22 = tail call ptr @cstring_to_text(ptr noundef nonnull %.0) #9
  tail call void @pfree(ptr noundef %21) #9
  %23 = ptrtoint ptr %22 to i64
  ret i64 %23
}